#include <math.h>
#include <stdio.h>
#include <stdlib.h>
#include <string.h>

int main()
{
	int a[100],n,i,b;
	int * p;
	scanf("%d",&n);
	for(i=0;i<n;i++) scanf("%d",&a[i]);
	p=&a[n-1];
	for(i=0;i<n-1;i++) 
	{
		b= * p;
		printf("%d ",b);
		p=p-1;
	}
	b= * p;
	printf("%d",b);
	return 0;
}